; Function Attrs: mustprogress uwtable
define dso_local void @_ZN13cmSystemTools7MessageERKNSt7__cxx1112basic_stringIcSt11char_traitsIcESaIcEEERK17cmMessageMetadata(ptr noundef nonnull align 8 dereferenceable(32) %0, ptr noundef nonnull align 8 dereferenceable(12) %1) local_unnamed_addr #3 align 2 {
  %3 = load ptr, ptr getelementptr inbounds nuw (i8, ptr @_ZN12_GLOBAL__N_117s_MessageCallbackB5cxx11E, i64 16), align 8, !tbaa !61
  %.not.i.i.not = icmp eq ptr %3, null
  br i1 %.not.i.i.not, label %5, label %_ZNKSt8functionIFvRKNSt7__cxx1112basic_stringIcSt11char_traitsIcESaIcEEERK17cmMessageMetadataEEclES7_SA_.exit

_ZNKSt8functionIFvRKNSt7__cxx1112basic_stringIcSt11char_traitsIcESaIcEEERK17cmMessageMetadataEEclES7_SA_.exit: ; preds = %2
  %4 = load ptr, ptr getelementptr inbounds nuw (i8, ptr @_ZN12_GLOBAL__N_117s_MessageCallbackB5cxx11E, i64 24), align 8, !tbaa !64
  tail call void %4(ptr noundef nonnull align 8 dereferenceable(16) @_ZN12_GLOBAL__N_117s_MessageCallbackB5cxx11E, ptr noundef nonnull align 8 dereferenceable(32) %0, ptr noundef nonnull align 8 dereferenceable(12) %1)
  br label %29

5:                                                ; preds = %2
  %6 = load ptr, ptr %0, align 8, !tbaa !13
  %7 = getelementptr inbounds nuw i8, ptr %0, i64 8
  %8 = load i64, ptr %7, align 8, !tbaa !25
  %9 = tail call noundef nonnull align 8 dereferenceable(8) ptr @_ZSt16__ostream_insertIcSt11char_traitsIcEERSt13basic_ostreamIT_T0_ES6_PKS3_l(ptr noundef nonnull align 8 dereferenceable(8) @_ZSt4cerr, ptr noundef %6, i64 noundef %8)
  %10 = load ptr, ptr %9, align 8, !tbaa !68
  %11 = getelementptr i8, ptr %10, i64 -24
  %12 = load i64, ptr %11, align 8
  %13 = getelementptr inbounds i8, ptr %9, i64 %12
  %14 = getelementptr inbounds nuw i8, ptr %13, i64 240
  %15 = load ptr, ptr %14, align 8, !tbaa !70
  %.not.i.i.i = icmp eq ptr %15, null
  br i1 %.not.i.i.i, label %16, label %_ZSt13__check_facetISt5ctypeIcEERKT_PS3_.exit.i.i

16:                                               ; preds = %5
  tail call void @_ZSt16__throw_bad_castv() #40
  unreachable

_ZSt13__check_facetISt5ctypeIcEERKT_PS3_.exit.i.i: ; preds = %5
  %17 = getelementptr inbounds nuw i8, ptr %15, i64 56
  %18 = load i8, ptr %17, align 8, !tbaa !85
  %.not.i1.i.i = icmp eq i8 %18, 0
  br i1 %.not.i1.i.i, label %22, label %19

19:                                               ; preds = %_ZSt13__check_facetISt5ctypeIcEERKT_PS3_.exit.i.i
  %20 = getelementptr inbounds nuw i8, ptr %15, i64 67
  %21 = load i8, ptr %20, align 1, !tbaa !26
  br label %_ZSt4endlIcSt11char_traitsIcEERSt13basic_ostreamIT_T0_ES6_.exit

22:                                               ; preds = %_ZSt13__check_facetISt5ctypeIcEERKT_PS3_.exit.i.i
  tail call void @_ZNKSt5ctypeIcE13_M_widen_initEv(ptr noundef nonnull align 8 dereferenceable(570) %15)
  %23 = load ptr, ptr %15, align 8, !tbaa !68
  %24 = getelementptr inbounds nuw i8, ptr %23, i64 48
  %25 = load ptr, ptr %24, align 8
  %26 = tail call noundef signext i8 %25(ptr noundef nonnull align 8 dereferenceable(570) %15, i8 noundef signext 10)
  br label %_ZSt4endlIcSt11char_traitsIcEERSt13basic_ostreamIT_T0_ES6_.exit

_ZSt4endlIcSt11char_traitsIcEERSt13basic_ostreamIT_T0_ES6_.exit: ; preds = %19, %22
  %.0.i.i.i = phi i8 [ %21, %19 ], [ %26, %22 ]
  %27 = tail call noundef nonnull align 8 dereferenceable(8) ptr @_ZNSo3putEc(ptr noundef nonnull align 8 dereferenceable(8) %9, i8 noundef signext %.0.i.i.i)
  %28 = tail call noundef nonnull align 8 dereferenceable(8) ptr @_ZNSo5flushEv(ptr noundef nonnull align 8 dereferenceable(8) %27)
  br label %29

29:                                               ; preds = %_ZSt4endlIcSt11char_traitsIcEERSt13basic_ostreamIT_T0_ES6_.exit, %_ZNKSt8functionIFvRKNSt7__cxx1112basic_stringIcSt11char_traitsIcESaIcEEERK17cmMessageMetadataEEclES7_SA_.exit
  ret void
}